; Function Attrs: mustprogress nounwind willreturn uwtable
define dso_local range(i32 0, 2) i32 @cmsysProcess_SetPipeFile(ptr noundef %0, i32 noundef %1, ptr noundef readonly %2) local_unnamed_addr #5 {
  %.not = icmp eq ptr %0, null
  br i1 %.not, label %cmsysProcess_SetPipeShared.exit, label %4

4:                                                ; preds = %3
  %switch.tableidx = add i32 %1, -1
  %5 = icmp ult i32 %switch.tableidx, 3
  br i1 %5, label %switch.lookup, label %cmsysProcess_SetPipeShared.exit

switch.lookup:                                    ; preds = %4
  %6 = shl nuw nsw i32 %switch.tableidx, 3
  %7 = zext nneg i32 %6 to i64
  %8 = getelementptr inbounds nuw i8, ptr %0, i64 %7
  %9 = getelementptr inbounds nuw i8, ptr %8, i64 2344
  %10 = load ptr, ptr %9, align 8, !tbaa !26
  %.not21 = icmp eq ptr %10, null
  br i1 %.not21, label %12, label %11

11:                                               ; preds = %switch.lookup
  tail call void @free(ptr noundef nonnull %10) #25
  store ptr null, ptr %9, align 8, !tbaa !26
  br label %12

12:                                               ; preds = %11, %switch.lookup
  %.not22 = icmp eq ptr %2, null
  br i1 %.not22, label %cmsysProcess_SetPipeShared.exit, label %13

13:                                               ; preds = %12
  %14 = tail call noalias ptr @strdup(ptr noundef nonnull %2) #25
  store ptr %14, ptr %9, align 8, !tbaa !26
  %.not23 = icmp eq ptr %14, null
  br i1 %.not23, label %cmsysProcess_SetPipeShared.exit, label %.thread

.thread:                                          ; preds = %13
  switch i32 %1, label %default.unreachable [
    i32 1, label %15
    i32 2, label %19
    i32 3, label %23
  ]

default.unreachable:                              ; preds = %.thread
  unreachable

15:                                               ; preds = %.thread
  %16 = getelementptr inbounds nuw i8, ptr %0, i64 2380
  store i32 -1, ptr %16, align 4, !tbaa !35
  %17 = getelementptr inbounds nuw i8, ptr %0, i64 2384
  store i32 -1, ptr %17, align 4, !tbaa !35
  %18 = getelementptr inbounds nuw i8, ptr %0, i64 2368
  store i32 0, ptr %18, align 8, !tbaa !4
  br label %cmsysProcess_SetPipeShared.exit

19:                                               ; preds = %.thread
  %20 = getelementptr inbounds nuw i8, ptr %0, i64 2388
  store i32 -1, ptr %20, align 4, !tbaa !35
  %21 = getelementptr inbounds nuw i8, ptr %0, i64 2392
  store i32 -1, ptr %21, align 4, !tbaa !35
  %22 = getelementptr inbounds nuw i8, ptr %0, i64 2372
  store i32 0, ptr %22, align 4, !tbaa !42
  br label %cmsysProcess_SetPipeShared.exit

23:                                               ; preds = %.thread
  %24 = getelementptr inbounds nuw i8, ptr %0, i64 2396
  store i32 -1, ptr %24, align 4, !tbaa !35
  %25 = getelementptr inbounds nuw i8, ptr %0, i64 2400
  store i32 -1, ptr %25, align 4, !tbaa !35
  %26 = getelementptr inbounds nuw i8, ptr %0, i64 2376
  store i32 0, ptr %26, align 8, !tbaa !43
  br label %cmsysProcess_SetPipeShared.exit

cmsysProcess_SetPipeShared.exit:                  ; preds = %4, %12, %23, %19, %15, %13, %3
  %.017 = phi i32 [ 0, %3 ], [ 0, %4 ], [ 0, %13 ], [ 1, %15 ], [ 1, %19 ], [ 1, %23 ], [ 1, %12 ]
  ret i32 %.017
}